target datalayout = "e-m:e-p270:32:32-p271:32:32-p272:64:64-i64:64-i128:128-f80:128-n8:16:32:64-S128"
target triple = "x86_64-pc-linux-gnu"

%struct.AVIOContext = type { ptr, ptr, i32, ptr, ptr, ptr, ptr, ptr, ptr, i64, i32, i32, i32, i32, i32, i64, ptr, ptr, ptr, ptr, i32, i32, ptr, ptr, ptr, i32, ptr, i64, i64 }

; Function Attrs: nounwind uwtable
define i32 @ffio_read_indirect(ptr noundef %0, ptr noundef %1, i32 noundef %2, ptr noundef %3) #0 {
  %5 = alloca i32, align 4
  %6 = alloca ptr, align 8
  %7 = alloca ptr, align 8
  %8 = alloca i32, align 4
  %9 = alloca ptr, align 8
  store ptr %0, ptr %6, align 8, !tbaa !14
  store ptr %1, ptr %7, align 8, !tbaa !9
  store i32 %2, ptr %8, align 4, !tbaa !11
  store ptr %3, ptr %9, align 8, !tbaa !70
  %10 = load ptr, ptr %6, align 8, !tbaa !14
  %11 = getelementptr inbounds nuw %struct.AVIOContext, ptr %10, i32 0, i32 4
  %12 = load ptr, ptr %11, align 8, !tbaa !38
  %13 = load ptr, ptr %6, align 8, !tbaa !14
  %14 = getelementptr inbounds nuw %struct.AVIOContext, ptr %13, i32 0, i32 3
  %15 = load ptr, ptr %14, align 8, !tbaa !23
  %16 = ptrtoint ptr %12 to i64
  %17 = ptrtoint ptr %15 to i64
  %18 = sub i64 %16, %17
  %19 = load i32, ptr %8, align 4, !tbaa !11
  %20 = sext i32 %19 to i64
  %21 = icmp sge i64 %18, %20
  br i1 %21, label %22, label %39

22:                                               ; preds = %4
  %23 = load ptr, ptr %6, align 8, !tbaa !14
  %24 = getelementptr inbounds nuw %struct.AVIOContext, ptr %23, i32 0, i32 12
  %25 = load i32, ptr %24, align 8, !tbaa !46
  %26 = icmp ne i32 %25, 0
  br i1 %26, label %39, label %27

27:                                               ; preds = %22
  %28 = load ptr, ptr %6, align 8, !tbaa !14
  %29 = getelementptr inbounds nuw %struct.AVIOContext, ptr %28, i32 0, i32 3
  %30 = load ptr, ptr %29, align 8, !tbaa !23
  %31 = load ptr, ptr %9, align 8, !tbaa !70
  store ptr %30, ptr %31, align 8, !tbaa !9
  %32 = load i32, ptr %8, align 4, !tbaa !11
  %33 = load ptr, ptr %6, align 8, !tbaa !14
  %34 = getelementptr inbounds nuw %struct.AVIOContext, ptr %33, i32 0, i32 3
  %35 = load ptr, ptr %34, align 8, !tbaa !23
  %36 = sext i32 %32 to i64
  %37 = getelementptr inbounds i8, ptr %35, i64 %36
  store ptr %37, ptr %34, align 8, !tbaa !23
  %38 = load i32, ptr %8, align 4, !tbaa !11
  store i32 %38, ptr %5, align 4
  br label %46

39:                                               ; preds = %22, %4
  %40 = load ptr, ptr %7, align 8, !tbaa !9
  %41 = load ptr, ptr %9, align 8, !tbaa !70
  store ptr %40, ptr %41, align 8, !tbaa !9
  %42 = load ptr, ptr %6, align 8, !tbaa !14
  %43 = load ptr, ptr %7, align 8, !tbaa !9
  %44 = load i32, ptr %8, align 4, !tbaa !11
  %45 = call i32 @avio_read(ptr noundef %42, ptr noundef %43, i32 noundef %44)
  store i32 %45, ptr %5, align 4
  br label %46

46:                                               ; preds = %39, %27
  %47 = load i32, ptr %5, align 4
  ret i32 %47
}