; Function Attrs: nounwind uwtable
define i32 @ffio_read_indirect(ptr noundef %0, ptr noundef %1, i32 noundef %2, ptr noundef writeonly captures(none) initializes((0, 8)) %3) local_unnamed_addr #3 {
  %5 = getelementptr inbounds nuw i8, ptr %0, i64 32
  %6 = load ptr, ptr %5, align 8, !tbaa !19
  %7 = getelementptr inbounds nuw i8, ptr %0, i64 24
  %8 = load ptr, ptr %7, align 8, !tbaa !16
  %9 = ptrtoint ptr %6 to i64
  %10 = ptrtoint ptr %8 to i64
  %11 = sub i64 %9, %10
  %12 = sext i32 %2 to i64
  %.not = icmp slt i64 %11, %12
  br i1 %.not, label %19, label %13

13:                                               ; preds = %4
  %14 = getelementptr inbounds nuw i8, ptr %0, i64 88
  %15 = load i32, ptr %14, align 8, !tbaa !20
  %.not15 = icmp eq i32 %15, 0
  br i1 %.not15, label %16, label %19

16:                                               ; preds = %13
  store ptr %8, ptr %3, align 8, !tbaa !54
  %17 = load ptr, ptr %7, align 8, !tbaa !16
  %18 = getelementptr inbounds i8, ptr %17, i64 %12
  store ptr %18, ptr %7, align 8, !tbaa !16
  br label %21

19:                                               ; preds = %13, %4
  store ptr %1, ptr %3, align 8, !tbaa !54
  %20 = tail call i32 @avio_read(ptr noundef nonnull %0, ptr noundef %1, i32 noundef %2)
  br label %21

21:                                               ; preds = %19, %16
  %.0 = phi i32 [ %20, %19 ], [ %2, %16 ]
  ret i32 %.0
}